; Function Attrs: mustprogress nounwind uwtable
define dso_local void @_ZNK4llvm11RISCVMCExpr9printImplERNS_11raw_ostreamEPKNS_9MCAsmInfoE(ptr nocapture noundef nonnull readonly align 8 dereferenceable(36) %0, ptr noundef nonnull align 8 dereferenceable(48) %1, ptr noundef %2) unnamed_addr #0 align 2 {
  %4 = getelementptr inbounds nuw i8, ptr %0, i64 32
  %5 = load i32, ptr %4, align 8
  switch i32 %5, label %switch.edge [
    i32 11, label %.critedge
    i32 0, label %.critedge
    i32 12, label %.critedge
  ]

switch.edge:                                      ; preds = %3
  %6 = getelementptr inbounds nuw i8, ptr %1, i64 32
  %7 = load ptr, ptr %6, align 8
  %8 = getelementptr inbounds nuw i8, ptr %1, i64 24
  %9 = load ptr, ptr %8, align 8
  %.not.i = icmp ult ptr %7, %9
  br i1 %.not.i, label %12, label %10

10:                                               ; preds = %switch.edge
  %11 = tail call noundef nonnull align 8 dereferenceable(48) ptr @_ZN4llvm11raw_ostream5writeEh(ptr noundef nonnull align 8 dereferenceable(48) %1, i8 noundef zeroext 37) #10
  br label %_ZN4llvm11raw_ostreamlsEc.exit

12:                                               ; preds = %switch.edge
  %13 = getelementptr inbounds i8, ptr %7, i64 1
  store ptr %13, ptr %6, align 8
  store i8 37, ptr %7, align 1
  br label %_ZN4llvm11raw_ostreamlsEc.exit

_ZN4llvm11raw_ostreamlsEc.exit:                   ; preds = %10, %12
  %.0.i = phi ptr [ %11, %10 ], [ %1, %12 ]
  %14 = load i32, ptr %4, align 8
  %switch.tableidx = add nsw i32 %14, -1
  %15 = sext i32 %switch.tableidx to i64
  %switch.gep = getelementptr inbounds [17 x i64], ptr @switch.table._ZN4llvm11RISCVMCExpr18getVariantKindNameENS0_11VariantKindE, i64 0, i64 %15
  %switch.load = load i64, ptr %switch.gep, align 8
  %16 = sext i32 %switch.tableidx to i64
  %switch.gep18 = getelementptr inbounds [17 x ptr], ptr @switch.table._ZN4llvm11RISCVMCExpr18getVariantKindNameENS0_11VariantKindE.3, i64 0, i64 %16
  %switch.load19 = load ptr, ptr %switch.gep18, align 8
  %17 = getelementptr inbounds nuw i8, ptr %.0.i, i64 24
  %18 = load ptr, ptr %17, align 8
  %19 = getelementptr inbounds nuw i8, ptr %.0.i, i64 32
  %20 = load ptr, ptr %19, align 8
  %21 = ptrtoint ptr %18 to i64
  %22 = ptrtoint ptr %20 to i64
  %23 = sub i64 %21, %22
  %24 = icmp ugt i64 %switch.load, %23
  br i1 %24, label %25, label %27

25:                                               ; preds = %_ZN4llvm11raw_ostreamlsEc.exit
  %26 = tail call noundef nonnull align 8 dereferenceable(48) ptr @_ZN4llvm11raw_ostream5writeEPKcm(ptr noundef nonnull align 8 dereferenceable(48) %.0.i, ptr noundef nonnull %switch.load19, i64 noundef %switch.load) #10
  %.phi.trans.insert = getelementptr inbounds nuw i8, ptr %26, i64 32
  %.pre = load ptr, ptr %.phi.trans.insert, align 8
  br label %_ZN4llvm11raw_ostreamlsENS_9StringRefE.exit

27:                                               ; preds = %_ZN4llvm11raw_ostreamlsEc.exit
  tail call void @llvm.memcpy.p0.p0.i64(ptr noundef nonnull align 1 dereferenceable(1) %20, ptr noundef nonnull align 1 dereferenceable(1) %switch.load19, i64 %switch.load, i1 false)
  %28 = load ptr, ptr %19, align 8
  %29 = getelementptr inbounds i8, ptr %28, i64 %switch.load
  store ptr %29, ptr %19, align 8
  br label %_ZN4llvm11raw_ostreamlsENS_9StringRefE.exit

_ZN4llvm11raw_ostreamlsENS_9StringRefE.exit:      ; preds = %25, %27
  %30 = phi ptr [ %.pre, %25 ], [ %29, %27 ]
  %.0.i11 = phi ptr [ %26, %25 ], [ %.0.i, %27 ]
  %31 = getelementptr inbounds nuw i8, ptr %.0.i11, i64 24
  %32 = load ptr, ptr %31, align 8
  %.not.i12 = icmp ult ptr %30, %32
  br i1 %.not.i12, label %35, label %33

33:                                               ; preds = %_ZN4llvm11raw_ostreamlsENS_9StringRefE.exit
  %34 = tail call noundef nonnull align 8 dereferenceable(48) ptr @_ZN4llvm11raw_ostream5writeEh(ptr noundef nonnull align 8 dereferenceable(48) %.0.i11, i8 noundef zeroext 40) #10
  br label %_ZN4llvm11raw_ostreamlsEc.exit14

35:                                               ; preds = %_ZN4llvm11raw_ostreamlsENS_9StringRefE.exit
  %36 = getelementptr inbounds nuw i8, ptr %.0.i11, i64 32
  %37 = getelementptr inbounds i8, ptr %30, i64 1
  store ptr %37, ptr %36, align 8
  store i8 40, ptr %30, align 1
  br label %_ZN4llvm11raw_ostreamlsEc.exit14

_ZN4llvm11raw_ostreamlsEc.exit14:                 ; preds = %33, %35
  %38 = getelementptr inbounds nuw i8, ptr %0, i64 24
  %39 = load ptr, ptr %38, align 8
  tail call void @_ZNK4llvm6MCExpr5printERNS_11raw_ostreamEPKNS_9MCAsmInfoEb(ptr noundef nonnull align 8 dereferenceable(16) %39, ptr noundef nonnull align 8 dereferenceable(48) %1, ptr noundef %2, i1 noundef zeroext false) #10
  %40 = load ptr, ptr %6, align 8
  %41 = load ptr, ptr %8, align 8
  %.not.i15 = icmp ult ptr %40, %41
  br i1 %.not.i15, label %44, label %42

42:                                               ; preds = %_ZN4llvm11raw_ostreamlsEc.exit14
  %43 = tail call noundef nonnull align 8 dereferenceable(48) ptr @_ZN4llvm11raw_ostream5writeEh(ptr noundef nonnull align 8 dereferenceable(48) %1, i8 noundef zeroext 41) #10
  br label %_ZN4llvm11raw_ostreamlsEc.exit17

44:                                               ; preds = %_ZN4llvm11raw_ostreamlsEc.exit14
  %45 = getelementptr inbounds i8, ptr %40, i64 1
  store ptr %45, ptr %6, align 8
  store i8 41, ptr %40, align 1
  br label %_ZN4llvm11raw_ostreamlsEc.exit17

.critedge:                                        ; preds = %3, %3, %3
  %46 = getelementptr inbounds nuw i8, ptr %0, i64 24
  %47 = load ptr, ptr %46, align 8
  tail call void @_ZNK4llvm6MCExpr5printERNS_11raw_ostreamEPKNS_9MCAsmInfoEb(ptr noundef nonnull align 8 dereferenceable(16) %47, ptr noundef nonnull align 8 dereferenceable(48) %1, ptr noundef %2, i1 noundef zeroext false) #10
  br label %_ZN4llvm11raw_ostreamlsEc.exit17

_ZN4llvm11raw_ostreamlsEc.exit17:                 ; preds = %44, %42, %.critedge
  ret void
}